
SPI-dev.elf:     file format elf32-avr

Sections:
Idx Name          Size      VMA       LMA       File off  Algn
  0 .data         00000002  00800100  00000252  000002e6  2**0
                  CONTENTS, ALLOC, LOAD, DATA
  1 .text         00000252  00000000  00000000  00000094  2**1
                  CONTENTS, ALLOC, LOAD, READONLY, CODE
  2 .bss          00000015  00800102  00800102  000002e8  2**0
                  ALLOC
  3 .comment      00000030  00000000  00000000  000002e8  2**0
                  CONTENTS, READONLY
  4 .debug_aranges 00000090  00000000  00000000  00000318  2**0
                  CONTENTS, READONLY, DEBUGGING
  5 .debug_info   00000576  00000000  00000000  000003a8  2**0
                  CONTENTS, READONLY, DEBUGGING
  6 .debug_abbrev 000001f7  00000000  00000000  0000091e  2**0
                  CONTENTS, READONLY, DEBUGGING
  7 .debug_line   0000044c  00000000  00000000  00000b15  2**0
                  CONTENTS, READONLY, DEBUGGING
  8 .debug_frame  00000130  00000000  00000000  00000f64  2**2
                  CONTENTS, READONLY, DEBUGGING
  9 .debug_str    00000323  00000000  00000000  00001094  2**0
                  CONTENTS, READONLY, DEBUGGING
 10 .debug_loc    00000406  00000000  00000000  000013b7  2**0
                  CONTENTS, READONLY, DEBUGGING
 11 .debug_ranges 00000080  00000000  00000000  000017bd  2**0
                  CONTENTS, READONLY, DEBUGGING

Disassembly of section .text:

00000000 <__vectors>:
   0:	45 c0       	rjmp	.+138    	; 0x8c <__ctors_end>
   2:	00 00       	nop
   4:	60 c0       	rjmp	.+192    	; 0xc6 <__bad_interrupt>
   6:	00 00       	nop
   8:	5e c0       	rjmp	.+188    	; 0xc6 <__bad_interrupt>
   a:	00 00       	nop
   c:	d0 c0       	rjmp	.+416    	; 0x1ae <__vector_3>
   e:	00 00       	nop
  10:	5a c0       	rjmp	.+180    	; 0xc6 <__bad_interrupt>
  12:	00 00       	nop
  14:	58 c0       	rjmp	.+176    	; 0xc6 <__bad_interrupt>
  16:	00 00       	nop
  18:	56 c0       	rjmp	.+172    	; 0xc6 <__bad_interrupt>
  1a:	00 00       	nop
  1c:	54 c0       	rjmp	.+168    	; 0xc6 <__bad_interrupt>
  1e:	00 00       	nop
  20:	52 c0       	rjmp	.+164    	; 0xc6 <__bad_interrupt>
  22:	00 00       	nop
  24:	50 c0       	rjmp	.+160    	; 0xc6 <__bad_interrupt>
  26:	00 00       	nop
  28:	4e c0       	rjmp	.+156    	; 0xc6 <__bad_interrupt>
  2a:	00 00       	nop
  2c:	4c c0       	rjmp	.+152    	; 0xc6 <__bad_interrupt>
  2e:	00 00       	nop
  30:	4a c0       	rjmp	.+148    	; 0xc6 <__bad_interrupt>
  32:	00 00       	nop
  34:	48 c0       	rjmp	.+144    	; 0xc6 <__bad_interrupt>
  36:	00 00       	nop
  38:	46 c0       	rjmp	.+140    	; 0xc6 <__bad_interrupt>
  3a:	00 00       	nop
  3c:	44 c0       	rjmp	.+136    	; 0xc6 <__bad_interrupt>
  3e:	00 00       	nop
  40:	42 c0       	rjmp	.+132    	; 0xc6 <__bad_interrupt>
  42:	00 00       	nop
  44:	40 c0       	rjmp	.+128    	; 0xc6 <__bad_interrupt>
  46:	00 00       	nop
  48:	3e c0       	rjmp	.+124    	; 0xc6 <__bad_interrupt>
  4a:	00 00       	nop
  4c:	3c c0       	rjmp	.+120    	; 0xc6 <__bad_interrupt>
  4e:	00 00       	nop
  50:	3a c0       	rjmp	.+116    	; 0xc6 <__bad_interrupt>
  52:	00 00       	nop
  54:	38 c0       	rjmp	.+112    	; 0xc6 <__bad_interrupt>
  56:	00 00       	nop
  58:	36 c0       	rjmp	.+108    	; 0xc6 <__bad_interrupt>
  5a:	00 00       	nop
  5c:	34 c0       	rjmp	.+104    	; 0xc6 <__bad_interrupt>
  5e:	00 00       	nop
  60:	32 c0       	rjmp	.+100    	; 0xc6 <__bad_interrupt>
  62:	00 00       	nop
  64:	30 c0       	rjmp	.+96     	; 0xc6 <__bad_interrupt>
  66:	00 00       	nop
  68:	2e c0       	rjmp	.+92     	; 0xc6 <__bad_interrupt>
  6a:	00 00       	nop
  6c:	2c c0       	rjmp	.+88     	; 0xc6 <__bad_interrupt>
  6e:	00 00       	nop
  70:	2a c0       	rjmp	.+84     	; 0xc6 <__bad_interrupt>
  72:	00 00       	nop
  74:	28 c0       	rjmp	.+80     	; 0xc6 <__bad_interrupt>
  76:	00 00       	nop
  78:	26 c0       	rjmp	.+76     	; 0xc6 <__bad_interrupt>
  7a:	00 00       	nop
  7c:	24 c0       	rjmp	.+72     	; 0xc6 <__bad_interrupt>
  7e:	00 00       	nop
  80:	22 c0       	rjmp	.+68     	; 0xc6 <__bad_interrupt>
  82:	00 00       	nop
  84:	20 c0       	rjmp	.+64     	; 0xc6 <__bad_interrupt>
  86:	00 00       	nop
  88:	1e c0       	rjmp	.+60     	; 0xc6 <__bad_interrupt>
	...

0000008c <__ctors_end>:
  8c:	11 24       	eor	r1, r1
  8e:	1f be       	out	0x3f, r1	; 63
  90:	cf ef       	ldi	r28, 0xFF	; 255
  92:	d0 e4       	ldi	r29, 0x40	; 64
  94:	de bf       	out	0x3e, r29	; 62
  96:	cd bf       	out	0x3d, r28	; 61

00000098 <__do_copy_data>:
  98:	11 e0       	ldi	r17, 0x01	; 1
  9a:	a0 e0       	ldi	r26, 0x00	; 0
  9c:	b1 e0       	ldi	r27, 0x01	; 1
  9e:	e2 e5       	ldi	r30, 0x52	; 82
  a0:	f2 e0       	ldi	r31, 0x02	; 2
  a2:	00 e0       	ldi	r16, 0x00	; 0
  a4:	0b bf       	out	0x3b, r16	; 59
  a6:	02 c0       	rjmp	.+4      	; 0xac <__do_copy_data+0x14>
  a8:	07 90       	elpm	r0, Z+
  aa:	0d 92       	st	X+, r0
  ac:	a2 30       	cpi	r26, 0x02	; 2
  ae:	b1 07       	cpc	r27, r17
  b0:	d9 f7       	brne	.-10     	; 0xa8 <__do_copy_data+0x10>

000000b2 <__do_clear_bss>:
  b2:	21 e0       	ldi	r18, 0x01	; 1
  b4:	a2 e0       	ldi	r26, 0x02	; 2
  b6:	b1 e0       	ldi	r27, 0x01	; 1
  b8:	01 c0       	rjmp	.+2      	; 0xbc <.do_clear_bss_start>

000000ba <.do_clear_bss_loop>:
  ba:	1d 92       	st	X+, r1

000000bc <.do_clear_bss_start>:
  bc:	a7 31       	cpi	r26, 0x17	; 23
  be:	b2 07       	cpc	r27, r18
  c0:	e1 f7       	brne	.-8      	; 0xba <.do_clear_bss_loop>
  c2:	8b d0       	rcall	.+278    	; 0x1da <main>
  c4:	c4 c0       	rjmp	.+392    	; 0x24e <_exit>

000000c6 <__bad_interrupt>:
  c6:	9c cf       	rjmp	.-200    	; 0x0 <__vectors>

000000c8 <SPI_SlaveInit>:
	} else if (angle_cm ==  SPI_ANGLE_LEFT) {
		OCR1B = LEFT;
	} else if (angle_cm ==  SPI_ANGLE_RIGHT) {
		OCR1B = RIGHT;
	} else {
		PORTA = 0xEA;
  c8:	80 e4       	ldi	r24, 0x40	; 64
  ca:	84 b9       	out	0x04, r24	; 4
  cc:	8c bd       	out	0x2c, r24	; 44
  ce:	08 95       	ret

000000d0 <SPI_tranceive>:
  d0:	8e bd       	out	0x2e, r24	; 46
  d2:	0d b4       	in	r0, 0x2d	; 45
  d4:	07 fe       	sbrs	r0, 7
  d6:	fd cf       	rjmp	.-6      	; 0xd2 <SPI_tranceive+0x2>
  d8:	8e b5       	in	r24, 0x2e	; 46
  da:	08 95       	ret

000000dc <read_data_send_check>:
  dc:	80 e0       	ldi	r24, 0x00	; 0
  de:	f8 df       	rcall	.-16     	; 0xd0 <SPI_tranceive>
  e0:	80 93 02 01 	sts	0x0102, r24
  e4:	8e ee       	ldi	r24, 0xEE	; 238
  e6:	82 b9       	out	0x02, r24	; 2
  e8:	80 e0       	ldi	r24, 0x00	; 0
  ea:	f2 df       	rcall	.-28     	; 0xd0 <SPI_tranceive>
  ec:	80 93 01 01 	sts	0x0101, r24
  f0:	90 91 02 01 	lds	r25, 0x0102
  f4:	89 27       	eor	r24, r25
  f6:	80 93 00 01 	sts	0x0100, r24
  fa:	ea cf       	rjmp	.-44     	; 0xd0 <SPI_tranceive>
  fc:	08 95       	ret

000000fe <PWM_init>:
  fe:	8a b1       	in	r24, 0x0a	; 10
 100:	8f ef       	ldi	r24, 0xFF	; 255
 102:	8a b9       	out	0x0a, r24	; 10
 104:	e0 e8       	ldi	r30, 0x80	; 128
 106:	f0 e0       	ldi	r31, 0x00	; 0
 108:	80 81       	ld	r24, Z
 10a:	82 6f       	ori	r24, 0xF2	; 242
 10c:	80 83       	st	Z, r24
 10e:	e1 e8       	ldi	r30, 0x81	; 129
 110:	f0 e0       	ldi	r31, 0x00	; 0
 112:	80 81       	ld	r24, Z
 114:	89 61       	ori	r24, 0x19	; 25
 116:	80 83       	st	Z, r24
 118:	e6 e8       	ldi	r30, 0x86	; 134
 11a:	f0 e0       	ldi	r31, 0x00	; 0
 11c:	80 e2       	ldi	r24, 0x20	; 32
 11e:	9e e4       	ldi	r25, 0x4E	; 78
 120:	91 83       	std	Z+1, r25	; 0x01
 122:	80 83       	st	Z, r24
 124:	80 81       	ld	r24, Z
 126:	91 81       	ldd	r25, Z+1	; 0x01
 128:	82 5d       	subi	r24, 0xD2	; 210
 12a:	95 40       	sbci	r25, 0x05	; 5
 12c:	90 93 16 01 	sts	0x0116, r25
 130:	80 93 15 01 	sts	0x0115, r24
 134:	84 e0       	ldi	r24, 0x04	; 4
 136:	90 e0       	ldi	r25, 0x00	; 0
 138:	90 93 12 01 	sts	0x0112, r25
 13c:	80 93 11 01 	sts	0x0111, r24
 140:	90 93 0a 01 	sts	0x010A, r25
 144:	80 93 09 01 	sts	0x0109, r24
 148:	80 81       	ld	r24, Z
 14a:	91 81       	ldd	r25, Z+1	; 0x01
 14c:	86 59       	subi	r24, 0x96	; 150
 14e:	95 40       	sbci	r25, 0x05	; 5
 150:	90 93 08 01 	sts	0x0108, r25
 154:	80 93 07 01 	sts	0x0107, r24
 158:	08 95       	ret

0000015a <speed_controller>:
		// speeds choses between 0-127 or reversed speeds between 0-(-127),
		// OCR1A = 18509(the compare value which is used with the counter ICR1 to create a fast PWM) give neutral speed.
		// The highest speed will be reached when the OCR1A = 18219 (when direction = 127) which gives a PWM signal = (2ms high signal from 20 ms).
		// for example when speed = 0 so OCR1A = 18600 which will give neutral speed.
		
		OCR1A = NEUTRAL - (speed * acceleration_rate_speed);
 15a:	20 91 11 01 	lds	r18, 0x0111
 15e:	30 91 12 01 	lds	r19, 0x0112
 162:	68 2f       	mov	r22, r24
 164:	62 03       	mulsu	r22, r18
 166:	a0 01       	movw	r20, r0
 168:	63 9f       	mul	r22, r19
 16a:	50 0d       	add	r21, r0
 16c:	11 24       	eor	r1, r1
 16e:	80 91 15 01 	lds	r24, 0x0115
 172:	90 91 16 01 	lds	r25, 0x0116
 176:	84 1b       	sub	r24, r20
 178:	95 0b       	sbc	r25, r21
 17a:	90 93 89 00 	sts	0x0089, r25
 17e:	80 93 88 00 	sts	0x0088, r24
 182:	08 95       	ret

00000184 <direction_controller>:
		// Right directions between 0-127 and left directions between 0-(-127),
		// OCR1B = 18509(the compare value with the counter ICR1 : counter_limit_const counter_limit_const) give neutral direction.
		// The far right direction will be near to OCR1B = 18219 (when direction = 127) which gives a PWM signal  = (2ms high signal from 20ms),
		// while the far left will be near to OCR1B = 18981 (when direction = -127) which gives a PWM signal  = (1ms high signal from 20ms).

		OCR1B = NEUTRAL_direction - (direction * acceleration_rate_direction);
 184:	20 91 09 01 	lds	r18, 0x0109
 188:	30 91 0a 01 	lds	r19, 0x010A
 18c:	68 2f       	mov	r22, r24
 18e:	62 03       	mulsu	r22, r18
 190:	a0 01       	movw	r20, r0
 192:	63 9f       	mul	r22, r19
 194:	50 0d       	add	r21, r0
 196:	11 24       	eor	r1, r1
 198:	80 91 07 01 	lds	r24, 0x0107
 19c:	90 91 08 01 	lds	r25, 0x0108
 1a0:	84 1b       	sub	r24, r20
 1a2:	95 0b       	sbc	r25, r21
 1a4:	90 93 8b 00 	sts	0x008B, r25
 1a8:	80 93 8a 00 	sts	0x008A, r24
 1ac:	08 95       	ret

000001ae <__vector_3>:
	}



ISR(INT2_vect)
{
 1ae:	1f 92       	push	r1
 1b0:	0f 92       	push	r0
 1b2:	0f b6       	in	r0, 0x3f	; 63
 1b4:	0f 92       	push	r0
 1b6:	11 24       	eor	r1, r1
	
	//Stop button.
	OCR1A = NEUTRAL;
 1b8:	80 91 15 01 	lds	r24, 0x0115
 1bc:	90 91 16 01 	lds	r25, 0x0116
 1c0:	90 93 89 00 	sts	0x0089, r25
 1c4:	80 93 88 00 	sts	0x0088, r24
	OCR1B = NEUTRAL_direction;
 1c8:	80 91 07 01 	lds	r24, 0x0107
 1cc:	90 91 08 01 	lds	r25, 0x0108
 1d0:	90 93 8b 00 	sts	0x008B, r25
 1d4:	80 93 8a 00 	sts	0x008A, r24
 1d8:	ff cf       	rjmp	.-2      	; 0x1d8 <__vector_3+0x2a>

000001da <main>:
}

int main(void) {

	// Stop button configurations.
	EICRA |= 1<<ISC20 | 1<<ISC21;
 1da:	e9 e6       	ldi	r30, 0x69	; 105
 1dc:	f0 e0       	ldi	r31, 0x00	; 0
 1de:	80 81       	ld	r24, Z
 1e0:	80 63       	ori	r24, 0x30	; 48
 1e2:	80 83       	st	Z, r24
	EIMSK |= 1<<INT2;
 1e4:	ea 9a       	sbi	0x1d, 2	; 29
	EIFR |= 1<<INTF2;
 1e6:	e2 9a       	sbi	0x1c, 2	; 28
	sei();               // Enable global interrupts.
 1e8:	78 94       	sei
	SPI_SlaveInit();
 1ea:	6e df       	rcall	.-292    	; 0xc8 <SPI_SlaveInit>
	PWM_init();
 1ec:	88 df       	rcall	.-240    	; 0xfe <PWM_init>

	return check;
}

void init(void) {
	DDRA = 0xFF;
 1ee:	8f ef       	ldi	r24, 0xFF	; 255
 1f0:	81 b9       	out	0x01, r24	; 1
	sei();               // Enable global interrupts.
	SPI_SlaveInit();
	PWM_init();
	init();

	PORTA = 0xBB; 	
 1f2:	8b eb       	ldi	r24, 0xBB	; 187
 1f4:	82 b9       	out	0x02, r24	; 2
	uint8_t spi_read = 0;
	uint8_t cntr = 0;
	

	
	OCR1A = NEUTRAL;
 1f6:	80 91 15 01 	lds	r24, 0x0115
 1fa:	90 91 16 01 	lds	r25, 0x0116
 1fe:	90 93 89 00 	sts	0x0089, r25
 202:	80 93 88 00 	sts	0x0088, r24
	OCR1B = ICR1 -1400;
 206:	80 91 86 00 	lds	r24, 0x0086
 20a:	90 91 87 00 	lds	r25, 0x0087
 20e:	88 57       	subi	r24, 0x78	; 120
 210:	95 40       	sbci	r25, 0x05	; 5
 212:	90 93 8b 00 	sts	0x008B, r25
 216:	80 93 8a 00 	sts	0x008A, r24
	
	while(1) {
		
		spi_rdy = 0;
 21a:	90 e0       	ldi	r25, 0x00	; 0
		
		/* SPI wait for start byte from central module */
		while (spi_rdy == 0) {
			spi_read = SPI_tranceive(SPI_ACK);
			spi_rdy = (spi_read == SPI_START);
 21c:	c1 e0       	ldi	r28, 0x01	; 1
 21e:	08 c0       	rjmp	.+16     	; 0x230 <main+0x56>
		
		spi_rdy = 0;
		
		/* SPI wait for start byte from central module */
		while (spi_rdy == 0) {
			spi_read = SPI_tranceive(SPI_ACK);
 220:	8e ee       	ldi	r24, 0xEE	; 238
 222:	56 df       	rcall	.-340    	; 0xd0 <SPI_tranceive>
			spi_rdy = (spi_read == SPI_START);
 224:	9c 2f       	mov	r25, r28
 226:	8a 3a       	cpi	r24, 0xAA	; 170
 228:	19 f0       	breq	.+6      	; 0x230 <main+0x56>
 22a:	90 e0       	ldi	r25, 0x00	; 0
 22c:	01 c0       	rjmp	.+2      	; 0x230 <main+0x56>
	OCR1A = NEUTRAL;
	OCR1B = ICR1 -1400;
	
	while(1) {
		
		spi_rdy = 0;
 22e:	90 e0       	ldi	r25, 0x00	; 0
		
		/* SPI wait for start byte from central module */
		while (spi_rdy == 0) {
 230:	99 23       	and	r25, r25
 232:	b1 f3       	breq	.-20     	; 0x220 <main+0x46>
			
			cntr++;
		}
		cntr = 0;
		
		read_data_send_check();
 234:	53 df       	rcall	.-346    	; 0xdc <read_data_send_check>
		
		/* Check if communication was a success */
		spi_success = SPI_tranceive(SPI_NAN) == SPI_FINISHED;
 236:	80 e0       	ldi	r24, 0x00	; 0
 238:	4b df       	rcall	.-362    	; 0xd0 <SPI_tranceive>
		
		if (spi_success) {
 23a:	86 36       	cpi	r24, 0x66	; 102
 23c:	c1 f7       	brne	.-16     	; 0x22e <main+0x54>
			//impl_speed_direction();
			speed_controller(speed_cm);
 23e:	80 91 02 01 	lds	r24, 0x0102
 242:	8b df       	rcall	.-234    	; 0x15a <speed_controller>
			direction_controller(angle_cm);
 244:	80 91 01 01 	lds	r24, 0x0101
 248:	9d df       	rcall	.-198    	; 0x184 <direction_controller>
	OCR1A = NEUTRAL;
	OCR1B = ICR1 -1400;
	
	while(1) {
		
		spi_rdy = 0;
 24a:	90 e0       	ldi	r25, 0x00	; 0
 24c:	f1 cf       	rjmp	.-30     	; 0x230 <main+0x56>

0000024e <_exit>:
 24e:	f8 94       	cli

00000250 <__stop_program>:
 250:	ff cf       	rjmp	.-2      	; 0x250 <__stop_program>
