
SPI-dev.elf:     file format elf32-avr

Sections:
Idx Name          Size      VMA       LMA       File off  Algn
  0 .data         00000002  00800100  000002b6  0000034a  2**0
                  CONTENTS, ALLOC, LOAD, DATA
  1 .text         000002b6  00000000  00000000  00000094  2**1
                  CONTENTS, ALLOC, LOAD, READONLY, CODE
  2 .bss          0000000d  00800102  00800102  0000034c  2**0
                  ALLOC
  3 .comment      00000030  00000000  00000000  0000034c  2**0
                  CONTENTS, READONLY
  4 .debug_aranges 000000a0  00000000  00000000  0000037c  2**0
                  CONTENTS, READONLY, DEBUGGING
  5 .debug_info   00000585  00000000  00000000  0000041c  2**0
                  CONTENTS, READONLY, DEBUGGING
  6 .debug_abbrev 00000215  00000000  00000000  000009a1  2**0
                  CONTENTS, READONLY, DEBUGGING
  7 .debug_line   000004a4  00000000  00000000  00000bb6  2**0
                  CONTENTS, READONLY, DEBUGGING
  8 .debug_frame  00000164  00000000  00000000  0000105c  2**2
                  CONTENTS, READONLY, DEBUGGING
  9 .debug_str    00000310  00000000  00000000  000011c0  2**0
                  CONTENTS, READONLY, DEBUGGING
 10 .debug_loc    0000042a  00000000  00000000  000014d0  2**0
                  CONTENTS, READONLY, DEBUGGING
 11 .debug_ranges 00000090  00000000  00000000  000018fa  2**0
                  CONTENTS, READONLY, DEBUGGING

Disassembly of section .text:

00000000 <__vectors>:
   0:	45 c0       	rjmp	.+138    	; 0x8c <__ctors_end>
   2:	00 00       	nop
   4:	60 c0       	rjmp	.+192    	; 0xc6 <__bad_interrupt>
   6:	00 00       	nop
   8:	5e c0       	rjmp	.+188    	; 0xc6 <__bad_interrupt>
   a:	00 00       	nop
   c:	06 c1       	rjmp	.+524    	; 0x21a <__vector_3>
   e:	00 00       	nop
  10:	5a c0       	rjmp	.+180    	; 0xc6 <__bad_interrupt>
  12:	00 00       	nop
  14:	58 c0       	rjmp	.+176    	; 0xc6 <__bad_interrupt>
  16:	00 00       	nop
  18:	56 c0       	rjmp	.+172    	; 0xc6 <__bad_interrupt>
  1a:	00 00       	nop
  1c:	54 c0       	rjmp	.+168    	; 0xc6 <__bad_interrupt>
  1e:	00 00       	nop
  20:	52 c0       	rjmp	.+164    	; 0xc6 <__bad_interrupt>
  22:	00 00       	nop
  24:	50 c0       	rjmp	.+160    	; 0xc6 <__bad_interrupt>
  26:	00 00       	nop
  28:	4e c0       	rjmp	.+156    	; 0xc6 <__bad_interrupt>
  2a:	00 00       	nop
  2c:	4c c0       	rjmp	.+152    	; 0xc6 <__bad_interrupt>
  2e:	00 00       	nop
  30:	4a c0       	rjmp	.+148    	; 0xc6 <__bad_interrupt>
  32:	00 00       	nop
  34:	48 c0       	rjmp	.+144    	; 0xc6 <__bad_interrupt>
  36:	00 00       	nop
  38:	46 c0       	rjmp	.+140    	; 0xc6 <__bad_interrupt>
  3a:	00 00       	nop
  3c:	44 c0       	rjmp	.+136    	; 0xc6 <__bad_interrupt>
  3e:	00 00       	nop
  40:	42 c0       	rjmp	.+132    	; 0xc6 <__bad_interrupt>
  42:	00 00       	nop
  44:	40 c0       	rjmp	.+128    	; 0xc6 <__bad_interrupt>
  46:	00 00       	nop
  48:	3e c0       	rjmp	.+124    	; 0xc6 <__bad_interrupt>
  4a:	00 00       	nop
  4c:	3c c0       	rjmp	.+120    	; 0xc6 <__bad_interrupt>
  4e:	00 00       	nop
  50:	3a c0       	rjmp	.+116    	; 0xc6 <__bad_interrupt>
  52:	00 00       	nop
  54:	38 c0       	rjmp	.+112    	; 0xc6 <__bad_interrupt>
  56:	00 00       	nop
  58:	36 c0       	rjmp	.+108    	; 0xc6 <__bad_interrupt>
  5a:	00 00       	nop
  5c:	34 c0       	rjmp	.+104    	; 0xc6 <__bad_interrupt>
  5e:	00 00       	nop
  60:	32 c0       	rjmp	.+100    	; 0xc6 <__bad_interrupt>
  62:	00 00       	nop
  64:	30 c0       	rjmp	.+96     	; 0xc6 <__bad_interrupt>
  66:	00 00       	nop
  68:	2e c0       	rjmp	.+92     	; 0xc6 <__bad_interrupt>
  6a:	00 00       	nop
  6c:	2c c0       	rjmp	.+88     	; 0xc6 <__bad_interrupt>
  6e:	00 00       	nop
  70:	2a c0       	rjmp	.+84     	; 0xc6 <__bad_interrupt>
  72:	00 00       	nop
  74:	28 c0       	rjmp	.+80     	; 0xc6 <__bad_interrupt>
  76:	00 00       	nop
  78:	26 c0       	rjmp	.+76     	; 0xc6 <__bad_interrupt>
  7a:	00 00       	nop
  7c:	24 c0       	rjmp	.+72     	; 0xc6 <__bad_interrupt>
  7e:	00 00       	nop
  80:	22 c0       	rjmp	.+68     	; 0xc6 <__bad_interrupt>
  82:	00 00       	nop
  84:	20 c0       	rjmp	.+64     	; 0xc6 <__bad_interrupt>
  86:	00 00       	nop
  88:	b0 c0       	rjmp	.+352    	; 0x1ea <__vector_34>
	...

0000008c <__ctors_end>:
  8c:	11 24       	eor	r1, r1
  8e:	1f be       	out	0x3f, r1	; 63
  90:	cf ef       	ldi	r28, 0xFF	; 255
  92:	d0 e4       	ldi	r29, 0x40	; 64
  94:	de bf       	out	0x3e, r29	; 62
  96:	cd bf       	out	0x3d, r28	; 61

00000098 <__do_copy_data>:
  98:	11 e0       	ldi	r17, 0x01	; 1
  9a:	a0 e0       	ldi	r26, 0x00	; 0
  9c:	b1 e0       	ldi	r27, 0x01	; 1
  9e:	e6 eb       	ldi	r30, 0xB6	; 182
  a0:	f2 e0       	ldi	r31, 0x02	; 2
  a2:	00 e0       	ldi	r16, 0x00	; 0
  a4:	0b bf       	out	0x3b, r16	; 59
  a6:	02 c0       	rjmp	.+4      	; 0xac <__do_copy_data+0x14>
  a8:	07 90       	elpm	r0, Z+
  aa:	0d 92       	st	X+, r0
  ac:	a2 30       	cpi	r26, 0x02	; 2
  ae:	b1 07       	cpc	r27, r17
  b0:	d9 f7       	brne	.-10     	; 0xa8 <__do_copy_data+0x10>

000000b2 <__do_clear_bss>:
  b2:	21 e0       	ldi	r18, 0x01	; 1
  b4:	a2 e0       	ldi	r26, 0x02	; 2
  b6:	b1 e0       	ldi	r27, 0x01	; 1
  b8:	01 c0       	rjmp	.+2      	; 0xbc <.do_clear_bss_start>

000000ba <.do_clear_bss_loop>:
  ba:	1d 92       	st	X+, r1

000000bc <.do_clear_bss_start>:
  bc:	af 30       	cpi	r26, 0x0F	; 15
  be:	b2 07       	cpc	r27, r18
  c0:	e1 f7       	brne	.-8      	; 0xba <.do_clear_bss_loop>
  c2:	c1 d0       	rcall	.+386    	; 0x246 <main>
  c4:	f6 c0       	rjmp	.+492    	; 0x2b2 <_exit>

000000c6 <__bad_interrupt>:
  c6:	9c cf       	rjmp	.-200    	; 0x0 <__vectors>

000000c8 <SPI_SlaveInit>:
	} else if (angle_cm ==  SPI_ANGLE_LEFT) {
		OCR1B = LEFT;
	} else if (angle_cm ==  SPI_ANGLE_RIGHT) {
		OCR1B = RIGHT;
	} else {
		PORTA = 0xEA;
  c8:	80 e4       	ldi	r24, 0x40	; 64
  ca:	84 b9       	out	0x04, r24	; 4
  cc:	8c bd       	out	0x2c, r24	; 44
  ce:	08 95       	ret

000000d0 <SPI_tranceive>:
  d0:	8e bd       	out	0x2e, r24	; 46
  d2:	0d b4       	in	r0, 0x2d	; 45
  d4:	07 fe       	sbrs	r0, 7
  d6:	fd cf       	rjmp	.-6      	; 0xd2 <SPI_tranceive+0x2>
  d8:	8e b5       	in	r24, 0x2e	; 46
  da:	08 95       	ret

000000dc <read_data_send_check>:
  dc:	80 e0       	ldi	r24, 0x00	; 0
  de:	f8 df       	rcall	.-16     	; 0xd0 <SPI_tranceive>
  e0:	80 93 02 01 	sts	0x0102, r24
  e4:	8e ee       	ldi	r24, 0xEE	; 238
  e6:	82 b9       	out	0x02, r24	; 2
  e8:	80 e0       	ldi	r24, 0x00	; 0
  ea:	f2 df       	rcall	.-28     	; 0xd0 <SPI_tranceive>
  ec:	80 93 01 01 	sts	0x0101, r24
  f0:	90 91 02 01 	lds	r25, 0x0102
  f4:	89 27       	eor	r24, r25
  f6:	80 93 00 01 	sts	0x0100, r24
  fa:	ea cf       	rjmp	.-44     	; 0xd0 <SPI_tranceive>
  fc:	08 95       	ret

000000fe <PWM_init>:
  fe:	8a b1       	in	r24, 0x0a	; 10
 100:	8f ef       	ldi	r24, 0xFF	; 255
 102:	8a b9       	out	0x0a, r24	; 10
 104:	e0 e8       	ldi	r30, 0x80	; 128
 106:	f0 e0       	ldi	r31, 0x00	; 0
 108:	80 81       	ld	r24, Z
 10a:	82 6f       	ori	r24, 0xF2	; 242
 10c:	80 83       	st	Z, r24
 10e:	e1 e8       	ldi	r30, 0x81	; 129
 110:	f0 e0       	ldi	r31, 0x00	; 0
 112:	80 81       	ld	r24, Z
 114:	89 61       	ori	r24, 0x19	; 25
 116:	80 83       	st	Z, r24
 118:	e6 e8       	ldi	r30, 0x86	; 134
 11a:	f0 e0       	ldi	r31, 0x00	; 0
 11c:	8f e1       	ldi	r24, 0x1F	; 31
 11e:	9e e4       	ldi	r25, 0x4E	; 78
 120:	91 83       	std	Z+1, r25	; 0x01
 122:	80 83       	st	Z, r24
 124:	80 81       	ld	r24, Z
 126:	91 81       	ldd	r25, Z+1	; 0x01
 128:	88 57       	subi	r24, 0x78	; 120
 12a:	95 40       	sbci	r25, 0x05	; 5
 12c:	90 93 0e 01 	sts	0x010E, r25
 130:	80 93 0d 01 	sts	0x010D, r24
 134:	80 81       	ld	r24, Z
 136:	91 81       	ldd	r25, Z+1	; 0x01
 138:	8a 5b       	subi	r24, 0xBA	; 186
 13a:	94 40       	sbci	r25, 0x04	; 4
 13c:	90 93 08 01 	sts	0x0108, r25
 140:	80 93 07 01 	sts	0x0107, r24
 144:	80 81       	ld	r24, Z
 146:	91 81       	ldd	r25, Z+1	; 0x01
 148:	82 57       	subi	r24, 0x72	; 114
 14a:	96 40       	sbci	r25, 0x06	; 6
 14c:	90 93 04 01 	sts	0x0104, r25
 150:	80 93 03 01 	sts	0x0103, r24
 154:	80 81       	ld	r24, Z
 156:	91 81       	ldd	r25, Z+1	; 0x01
 158:	84 5b       	subi	r24, 0xB4	; 180
 15a:	95 40       	sbci	r25, 0x05	; 5
 15c:	90 93 06 01 	sts	0x0106, r25
 160:	80 93 05 01 	sts	0x0105, r24
 164:	80 81       	ld	r24, Z
 166:	91 81       	ldd	r25, Z+1	; 0x01
 168:	83 5c       	subi	r24, 0xC3	; 195
 16a:	95 40       	sbci	r25, 0x05	; 5
 16c:	90 93 0c 01 	sts	0x010C, r25
 170:	80 93 0b 01 	sts	0x010B, r24
 174:	80 81       	ld	r24, Z
 176:	91 81       	ldd	r25, Z+1	; 0x01
 178:	86 54       	subi	r24, 0x46	; 70
 17a:	95 40       	sbci	r25, 0x05	; 5
 17c:	90 93 0a 01 	sts	0x010A, r25
 180:	80 93 09 01 	sts	0x0109, r24
 184:	08 95       	ret

00000186 <initiate_abort_counter>:
 186:	e4 e6       	ldi	r30, 0x64	; 100
 188:	f0 e0       	ldi	r31, 0x00	; 0
 18a:	80 81       	ld	r24, Z
 18c:	8e 7f       	andi	r24, 0xFE	; 254
 18e:	80 83       	st	Z, r24
 190:	10 92 90 00 	sts	0x0090, r1
 194:	82 e0       	ldi	r24, 0x02	; 2
 196:	80 93 91 00 	sts	0x0091, r24
 19a:	81 e0       	ldi	r24, 0x01	; 1
 19c:	80 93 71 00 	sts	0x0071, r24
 1a0:	08 95       	ret

000001a2 <speed_controller>:
		// The highest speed will be reached when the OCR1A = 18219 (when direction = 127) which gives a PWM signal = (2ms high signal from 20 ms).
		// for example when speed = 0 so OCR1A = 18600 which will give neutral speed.
		
		unsigned int counter_limit_const = 18600; 
		unsigned int acceleration_rate = 3;
		OCR1A = counter_limit_const - (speed * acceleration_rate );
 1a2:	99 27       	eor	r25, r25
 1a4:	87 fd       	sbrc	r24, 7
 1a6:	90 95       	com	r25
 1a8:	9c 01       	movw	r18, r24
 1aa:	22 0f       	add	r18, r18
 1ac:	33 1f       	adc	r19, r19
 1ae:	82 0f       	add	r24, r18
 1b0:	93 1f       	adc	r25, r19
 1b2:	28 ea       	ldi	r18, 0xA8	; 168
 1b4:	38 e4       	ldi	r19, 0x48	; 72
 1b6:	a9 01       	movw	r20, r18
 1b8:	48 1b       	sub	r20, r24
 1ba:	59 0b       	sbc	r21, r25
 1bc:	50 93 89 00 	sts	0x0089, r21
 1c0:	40 93 88 00 	sts	0x0088, r20
 1c4:	08 95       	ret

000001c6 <direction_controller>:
		// Right directions between 0-127 and left directions between 0-(-127), OCR1B = 18600(the compare value with the counter ICR1) give neutral direction.
		// The far right direction will be near to OCR1B = 18219 (when direction = 127) which gives a PWM signal  = (2ms high signal from 20ms),
		// while the far left will be near to OCR1B = 18981 (when direction = -127) which gives a PWM signal  = (1ms high signal from 20ms).
		unsigned int counter_limit_const = 18600;
		unsigned int acceleration_rate = 3;
		OCR1B = counter_limit_const - (direction * acceleration_rate);
 1c6:	99 27       	eor	r25, r25
 1c8:	87 fd       	sbrc	r24, 7
 1ca:	90 95       	com	r25
 1cc:	9c 01       	movw	r18, r24
 1ce:	22 0f       	add	r18, r18
 1d0:	33 1f       	adc	r19, r19
 1d2:	82 0f       	add	r24, r18
 1d4:	93 1f       	adc	r25, r19
 1d6:	28 ea       	ldi	r18, 0xA8	; 168
 1d8:	38 e4       	ldi	r19, 0x48	; 72
 1da:	a9 01       	movw	r20, r18
 1dc:	48 1b       	sub	r20, r24
 1de:	59 0b       	sbc	r21, r25
 1e0:	50 93 8b 00 	sts	0x008B, r21
 1e4:	40 93 8a 00 	sts	0x008A, r20
 1e8:	08 95       	ret

000001ea <__vector_34>:
		
	}

// Lost connection with central module, see comment on initiate_abort_counter
ISR(TIMER3_OVF_vect)
{
 1ea:	1f 92       	push	r1
 1ec:	0f 92       	push	r0
 1ee:	0f b6       	in	r0, 0x3f	; 63
 1f0:	0f 92       	push	r0
 1f2:	11 24       	eor	r1, r1
 1f4:	8f 93       	push	r24
 1f6:	9f 93       	push	r25
	OCR1A = NEUTRAL;
 1f8:	80 91 0d 01 	lds	r24, 0x010D
 1fc:	90 91 0e 01 	lds	r25, 0x010E
 200:	90 93 89 00 	sts	0x0089, r25
 204:	80 93 88 00 	sts	0x0088, r24
	PORTA = 0xF1;
 208:	81 ef       	ldi	r24, 0xF1	; 241
 20a:	82 b9       	out	0x02, r24	; 2
}
 20c:	9f 91       	pop	r25
 20e:	8f 91       	pop	r24
 210:	0f 90       	pop	r0
 212:	0f be       	out	0x3f, r0	; 63
 214:	0f 90       	pop	r0
 216:	1f 90       	pop	r1
 218:	18 95       	reti

0000021a <__vector_3>:

ISR(INT2_vect)
{
 21a:	1f 92       	push	r1
 21c:	0f 92       	push	r0
 21e:	0f b6       	in	r0, 0x3f	; 63
 220:	0f 92       	push	r0
 222:	11 24       	eor	r1, r1
	
	//Stop button.
	OCR1A = NEUTRAL;
 224:	80 91 0d 01 	lds	r24, 0x010D
 228:	90 91 0e 01 	lds	r25, 0x010E
 22c:	90 93 89 00 	sts	0x0089, r25
 230:	80 93 88 00 	sts	0x0088, r24
	OCR1B = NEUTRAL;
 234:	80 91 0d 01 	lds	r24, 0x010D
 238:	90 91 0e 01 	lds	r25, 0x010E
 23c:	90 93 8b 00 	sts	0x008B, r25
 240:	80 93 8a 00 	sts	0x008A, r24
 244:	ff cf       	rjmp	.-2      	; 0x244 <__vector_3+0x2a>

00000246 <main>:
}

int main(void) {

	// Stop button configurations.
	EICRA |= 1<<ISC20 | 1<<ISC21;
 246:	e9 e6       	ldi	r30, 0x69	; 105
 248:	f0 e0       	ldi	r31, 0x00	; 0
 24a:	80 81       	ld	r24, Z
 24c:	80 63       	ori	r24, 0x30	; 48
 24e:	80 83       	st	Z, r24
	EIMSK |= 1<<INT2;
 250:	ea 9a       	sbi	0x1d, 2	; 29
	EIFR |= 1<<INTF2;
 252:	e2 9a       	sbi	0x1c, 2	; 28
	sei();               // Enable global interrupts.
 254:	78 94       	sei
	SPI_SlaveInit();
 256:	38 df       	rcall	.-400    	; 0xc8 <SPI_SlaveInit>
	PWM_init();
 258:	52 df       	rcall	.-348    	; 0xfe <PWM_init>

	return check;
}

void init(void) {
	DDRA = 0xFF;
 25a:	8f ef       	ldi	r24, 0xFF	; 255
 25c:	81 b9       	out	0x01, r24	; 1
	EIFR |= 1<<INTF2;
	sei();               // Enable global interrupts.
	SPI_SlaveInit();
	PWM_init();
	init();
	initiate_abort_counter();
 25e:	93 df       	rcall	.-218    	; 0x186 <initiate_abort_counter>

	PORTA = 0xBB; 	
 260:	8b eb       	ldi	r24, 0xBB	; 187
 262:	82 b9       	out	0x02, r24	; 2
	uint8_t spi_success = 0;
	
	uint8_t spi_read = 0;	

	
	OCR1A = NEUTRAL;
 264:	80 91 0d 01 	lds	r24, 0x010D
 268:	90 91 0e 01 	lds	r25, 0x010E
 26c:	90 93 89 00 	sts	0x0089, r25
 270:	80 93 88 00 	sts	0x0088, r24
	OCR1B = NEUTRAL;
 274:	80 91 0d 01 	lds	r24, 0x010D
 278:	90 91 0e 01 	lds	r25, 0x010E
 27c:	90 93 8b 00 	sts	0x008B, r25
 280:	80 93 8a 00 	sts	0x008A, r24
	
	while(1) {
		PORTA = 0xFF;
 284:	1f ef       	ldi	r17, 0xFF	; 255
		/* Check if communication was a success */
		spi_success = SPI_tranceive(SPI_NAN) == SPI_FINISHED;
		
		if (spi_success) {
			//impl_speed_direction();
			TCNT3 = 0;
 286:	c4 e9       	ldi	r28, 0x94	; 148
 288:	d0 e0       	ldi	r29, 0x00	; 0
	
	OCR1A = NEUTRAL;
	OCR1B = NEUTRAL;
	
	while(1) {
		PORTA = 0xFF;
 28a:	12 b9       	out	0x02, r17	; 2
		
		spi_rdy = 0;
		
		/* SPI wait for start byte from central module */
		while (spi_rdy == 0) {
			spi_read = SPI_tranceive(SPI_ACK);
 28c:	8e ee       	ldi	r24, 0xEE	; 238
 28e:	20 df       	rcall	.-448    	; 0xd0 <SPI_tranceive>
		PORTA = 0xFF;
		
		spi_rdy = 0;
		
		/* SPI wait for start byte from central module */
		while (spi_rdy == 0) {
 290:	8a 3a       	cpi	r24, 0xAA	; 170
 292:	e1 f7       	brne	.-8      	; 0x28c <main+0x46>
			spi_read = SPI_tranceive(SPI_ACK);
			spi_rdy = (spi_read == SPI_START);
			
		}

		read_data_send_check();
 294:	23 df       	rcall	.-442    	; 0xdc <read_data_send_check>
		
		/* Check if communication was a success */
		spi_success = SPI_tranceive(SPI_NAN) == SPI_FINISHED;
 296:	80 e0       	ldi	r24, 0x00	; 0
 298:	1b df       	rcall	.-458    	; 0xd0 <SPI_tranceive>
		
		if (spi_success) {
 29a:	86 36       	cpi	r24, 0x66	; 102
 29c:	b1 f7       	brne	.-20     	; 0x28a <main+0x44>
			//impl_speed_direction();
			TCNT3 = 0;
 29e:	19 82       	std	Y+1, r1	; 0x01
 2a0:	18 82       	st	Y, r1
			PORTA = 0x00;
 2a2:	12 b8       	out	0x02, r1	; 2
			speed_controller(speed_cm);
 2a4:	80 91 02 01 	lds	r24, 0x0102
 2a8:	7c df       	rcall	.-264    	; 0x1a2 <speed_controller>
			direction_controller(angle_cm);
 2aa:	80 91 01 01 	lds	r24, 0x0101
 2ae:	8b df       	rcall	.-234    	; 0x1c6 <direction_controller>
 2b0:	ec cf       	rjmp	.-40     	; 0x28a <main+0x44>

000002b2 <_exit>:
 2b2:	f8 94       	cli

000002b4 <__stop_program>:
 2b4:	ff cf       	rjmp	.-2      	; 0x2b4 <__stop_program>
